target datalayout = "e-m:e-p270:32:32-p271:32:32-p272:64:64-i64:64-i128:128-f80:128-n8:16:32:64-S128"
target triple = "x86_64-pc-linux-gnu"

%struct.stanza_st = type { ptr, ptr, i32, i32, i32, i32, i32, i32, [150 x %struct.pair_st], ptr, [32768 x i8] }
%struct.pair_st = type { ptr, ptr }

@.str = private unnamed_addr constant [34 x i8] c"../openssl/test/testutil/stanza.c\00", align 1
@.str.4 = private unnamed_addr constant [49 x i8] c"Completed %d tests with %d errors and %d skipped\00", align 1

; Function Attrs: nounwind uwtable
define i32 @test_end_file(ptr noundef %0) #0 {
  %2 = alloca ptr, align 8
  store ptr %0, ptr %2, align 8, !tbaa !3
  %3 = load ptr, ptr %2, align 8, !tbaa !3
  %4 = getelementptr inbounds nuw %struct.stanza_st, ptr %3, i32 0, i32 5
  %5 = load i32, ptr %4, align 4, !tbaa !15
  %6 = load ptr, ptr %2, align 8, !tbaa !3
  %7 = getelementptr inbounds nuw %struct.stanza_st, ptr %6, i32 0, i32 4
  %8 = load i32, ptr %7, align 8, !tbaa !16
  %9 = load ptr, ptr %2, align 8, !tbaa !3
  %10 = getelementptr inbounds nuw %struct.stanza_st, ptr %9, i32 0, i32 6
  %11 = load i32, ptr %10, align 8, !tbaa !17
  call void (ptr, i32, ptr, ...) @test_info(ptr noundef @.str, i32 noundef 33, ptr noundef @.str.4, i32 noundef %5, i32 noundef %8, i32 noundef %11)
  %12 = load ptr, ptr %2, align 8, !tbaa !3
  %13 = getelementptr inbounds nuw %struct.stanza_st, ptr %12, i32 0, i32 1
  %14 = load ptr, ptr %13, align 8, !tbaa !10
  %15 = call i32 @BIO_free(ptr noundef %14)
  ret i32 1
}